target datalayout = "e-m:e-p270:32:32-p271:32:32-p272:64:64-i64:64-i128:128-f80:128-n8:16:32:64-S128"
target triple = "x86_64-pc-linux-gnu"

%class.ForeignLambdaTerms = type <{ i32, [4 x i8], ptr, %"class.std::vector", %"class.std::vector.0", i8, [7 x i8] }>
%"class.std::vector" = type { %"struct.std::_Vector_base" }
%"struct.std::_Vector_base" = type { %"struct.std::_Vector_base<double, std::allocator<double>>::_Vector_impl" }
%"struct.std::_Vector_base<double, std::allocator<double>>::_Vector_impl" = type { %"struct.std::_Vector_base<double, std::allocator<double>>::_Vector_impl_data" }
%"struct.std::_Vector_base<double, std::allocator<double>>::_Vector_impl_data" = type { ptr, ptr, ptr }
%"class.std::vector.0" = type { %"struct.std::_Vector_base.1" }
%"struct.std::_Vector_base.1" = type { %"struct.std::_Vector_base<gmx::EnumerationArray<FreeEnergyPerturbationCouplingType, double>, std::allocator<gmx::EnumerationArray<FreeEnergyPerturbationCouplingType, double>>>::_Vector_impl" }
%"struct.std::_Vector_base<gmx::EnumerationArray<FreeEnergyPerturbationCouplingType, double>, std::allocator<gmx::EnumerationArray<FreeEnergyPerturbationCouplingType, double>>>::_Vector_impl" = type { %"struct.std::_Vector_base<gmx::EnumerationArray<FreeEnergyPerturbationCouplingType, double>, std::allocator<gmx::EnumerationArray<FreeEnergyPerturbationCouplingType, double>>>::_Vector_impl_data" }
%"struct.std::_Vector_base<gmx::EnumerationArray<FreeEnergyPerturbationCouplingType, double>, std::allocator<gmx::EnumerationArray<FreeEnergyPerturbationCouplingType, double>>>::_Vector_impl_data" = type { ptr, ptr, ptr }
%"struct.gmx::EnumerationArray.5" = type { [7 x double] }
%"class.gmx::EnumerationWrapper" = type { i8 }
%"class.gmx::EnumerationIterator" = type { i32 }
%struct.gmx_enerdata_t = type { %"struct.std::array", %struct.gmx_grppairener_t, %"struct.gmx::EnumerationArray.5", %"struct.gmx::EnumerationArray.5", %class.ForeignLambdaTerms }
%"struct.std::array" = type { [94 x float] }
%struct.gmx_grppairener_t = type { i32, %"struct.gmx::EnumerationArray.13" }
%"struct.gmx::EnumerationArray.13" = type { [5 x %"class.std::vector.14"] }
%"class.std::vector.14" = type { %"struct.std::_Vector_base.15" }
%"struct.std::_Vector_base.15" = type { %"struct.std::_Vector_base<float, std::allocator<float>>::_Vector_impl" }
%"struct.std::_Vector_base<float, std::allocator<float>>::_Vector_impl" = type { %"struct.std::_Vector_base<float, std::allocator<float>>::_Vector_impl_data" }
%"struct.std::_Vector_base<float, std::allocator<float>>::_Vector_impl_data" = type { ptr, ptr, ptr }

; Function Attrs: mustprogress nounwind uwtable
define linkonce_odr noundef i64 @_ZNK3gmx19EnumerationIteratorI34FreeEnergyPerturbationCouplingTypeLS1_7ELl1EEmiES2_(ptr noundef nonnull align 4 dereferenceable(4) %0, i32 %1) #1 comdat align 2 {
  %3 = alloca %"class.gmx::EnumerationIterator", align 4
  %4 = alloca ptr, align 8
  %5 = getelementptr inbounds %"class.gmx::EnumerationIterator", ptr %3, i32 0, i32 0
  store i32 %1, ptr %5, align 4
  store ptr %0, ptr %4, align 8
  %6 = load ptr, ptr %4, align 8
  %7 = getelementptr inbounds %"class.gmx::EnumerationIterator", ptr %6, i32 0, i32 0
  %8 = load i32, ptr %7, align 4
  %9 = sext i32 %8 to i64
  %10 = getelementptr inbounds %"class.gmx::EnumerationIterator", ptr %3, i32 0, i32 0
  %11 = load i32, ptr %10, align 4
  %12 = sext i32 %11 to i64
  %13 = sub nsw i64 %9, %12
  %14 = sdiv i64 %13, 1
  ret i64 %14
}

; Function Attrs: mustprogress nounwind uwtable
define linkonce_odr noundef i64 @_ZN3gmx5boost14stl_interfaces6detail11common_diffINS_19EnumerationIteratorI34FreeEnergyPerturbationCouplingTypeLS5_7ELl1EEES6_EEDTmiscNSt11conditionalIXsr3std14is_convertibleIT_T0_EE5valueES9_S8_E4typeEfp_scSB_fp0_ES8_S9_(i32 %0, i32 %1) #1 comdat {
  %3 = alloca %"class.gmx::EnumerationIterator", align 4
  %4 = alloca %"class.gmx::EnumerationIterator", align 4
  %5 = alloca %"class.gmx::EnumerationIterator", align 4
  %6 = alloca %"class.gmx::EnumerationIterator", align 4
  %7 = getelementptr inbounds %"class.gmx::EnumerationIterator", ptr %3, i32 0, i32 0
  store i32 %0, ptr %7, align 4
  %8 = getelementptr inbounds %"class.gmx::EnumerationIterator", ptr %4, i32 0, i32 0
  store i32 %1, ptr %8, align 4
  call void @llvm.memcpy.p0.p0.i64(ptr align 4 %5, ptr align 4 %3, i64 4, i1 false)
  call void @llvm.memcpy.p0.p0.i64(ptr align 4 %6, ptr align 4 %4, i64 4, i1 false)
  %9 = getelementptr inbounds %"class.gmx::EnumerationIterator", ptr %6, i32 0, i32 0
  %10 = load i32, ptr %9, align 4
  %11 = call noundef i64 @_ZNK3gmx19EnumerationIteratorI34FreeEnergyPerturbationCouplingTypeLS1_7ELl1EEmiES2_(ptr noundef nonnull align 4 dereferenceable(4) %5, i32 %10) #12
  ret i64 %11
}

; Function Attrs: mustprogress nounwind uwtable
define linkonce_odr noundef nonnull align 4 dereferenceable(4) ptr @_ZN3gmx19EnumerationIteratorI34FreeEnergyPerturbationCouplingTypeLS1_7ELl1EEpLEl(ptr noundef nonnull align 4 dereferenceable(4) %0, i64 noundef %1) #1 comdat align 2 {
  %3 = alloca ptr, align 8
  %4 = alloca i64, align 8
  store ptr %0, ptr %3, align 8
  store i64 %1, ptr %4, align 8
  %5 = load ptr, ptr %3, align 8
  %6 = load i64, ptr %4, align 8
  %7 = mul nsw i64 1, %6
  %8 = getelementptr inbounds %"class.gmx::EnumerationIterator", ptr %5, i32 0, i32 0
  %9 = load i32, ptr %8, align 4
  %10 = sext i32 %9 to i64
  %11 = add nsw i64 %10, %7
  %12 = trunc i64 %11 to i32
  store i32 %12, ptr %8, align 4
  ret ptr %5
}

; Function Attrs: mustprogress nounwind uwtable
define linkonce_odr noundef nonnull align 4 dereferenceable(4) ptr @_ZN3gmx5boost14stl_interfaces2v118iterator_interfaceINS_19EnumerationIteratorI34FreeEnergyPerturbationCouplingTypeLS5_7ELl1EEESt26random_access_iterator_tagS5_RS5_PS5_lvE7derivedEv(ptr noundef nonnull align 1 dereferenceable(1) %0) #1 comdat align 2 {
  %2 = alloca ptr, align 8
  store ptr %0, ptr %2, align 8
  %3 = load ptr, ptr %2, align 8
  ret ptr %3
}

; Function Attrs: mustprogress nounwind uwtable
define linkonce_odr noundef zeroext i1 @_ZN3gmx5boost14stl_interfaces2v1eqINS_19EnumerationIteratorI34FreeEnergyPerturbationCouplingTypeLS5_7ELl1EEES6_vEEDTcmclsr6v1_dtlE16derived_iteratorfp_Eeqclsr6detailE11common_difffp_fp0_ELi0EET_T0_(i32 %0, i32 %1) #1 comdat {
  %3 = alloca %"class.gmx::EnumerationIterator", align 4
  %4 = alloca %"class.gmx::EnumerationIterator", align 4
  %5 = alloca %"class.gmx::EnumerationIterator", align 4
  %6 = alloca %"class.gmx::EnumerationIterator", align 4
  %7 = getelementptr inbounds %"class.gmx::EnumerationIterator", ptr %3, i32 0, i32 0
  store i32 %0, ptr %7, align 4
  %8 = getelementptr inbounds %"class.gmx::EnumerationIterator", ptr %4, i32 0, i32 0
  store i32 %1, ptr %8, align 4
  call void @llvm.memcpy.p0.p0.i64(ptr align 4 %5, ptr align 4 %3, i64 4, i1 false)
  call void @llvm.memcpy.p0.p0.i64(ptr align 4 %6, ptr align 4 %4, i64 4, i1 false)
  %9 = getelementptr inbounds %"class.gmx::EnumerationIterator", ptr %5, i32 0, i32 0
  %10 = load i32, ptr %9, align 4
  %11 = getelementptr inbounds %"class.gmx::EnumerationIterator", ptr %6, i32 0, i32 0
  %12 = load i32, ptr %11, align 4
  %13 = call noundef i64 @_ZN3gmx5boost14stl_interfaces6detail11common_diffINS_19EnumerationIteratorI34FreeEnergyPerturbationCouplingTypeLS5_7ELl1EEES6_EEDTmiscNSt11conditionalIXsr3std14is_convertibleIT_T0_EE5valueES9_S8_E4typeEfp_scSB_fp0_ES8_S9_(i32 %10, i32 %12) #12
  %14 = icmp eq i64 %13, 0
  ret i1 %14
}

; Function Attrs: mustprogress nounwind uwtable
define linkonce_odr void @_ZN3gmx19EnumerationIteratorI34FreeEnergyPerturbationCouplingTypeLS1_7ELl1EEC2ES1_(ptr noundef nonnull align 4 dereferenceable(4) %0, i32 noundef %1) unnamed_addr #1 comdat align 2 {
  %3 = alloca ptr, align 8
  %4 = alloca i32, align 4
  store ptr %0, ptr %3, align 8
  store i32 %1, ptr %4, align 4
  %5 = load ptr, ptr %3, align 8
  %6 = getelementptr inbounds %"class.gmx::EnumerationIterator", ptr %5, i32 0, i32 0
  %7 = load i32, ptr %4, align 4
  store i32 %7, ptr %6, align 4
  ret void
}

; Function Attrs: mustprogress nounwind uwtable
define linkonce_odr void @_ZN3gmx19EnumerationIteratorI34FreeEnergyPerturbationCouplingTypeLS1_7ELl1EEC2Ev(ptr noundef nonnull align 4 dereferenceable(4) %0) unnamed_addr #1 comdat align 2 {
  %2 = alloca ptr, align 8
  store ptr %0, ptr %2, align 8
  %3 = load ptr, ptr %2, align 8
  %4 = getelementptr inbounds %"class.gmx::EnumerationIterator", ptr %3, i32 0, i32 0
  store i32 0, ptr %4, align 4
  ret void
}

; Function Attrs: mustprogress nounwind uwtable
define linkonce_odr void @_ZN3gmx16EnumerationArrayI34FreeEnergyPerturbationCouplingTypedLS1_7EE4keysEv() #1 comdat align 2 {
  ret void
}

; Function Attrs: mustprogress nounwind uwtable
define linkonce_odr noundef nonnull align 4 dereferenceable(4) ptr @_ZN3gmx5boost14stl_interfaces2v118iterator_interfaceINS_19EnumerationIteratorI34FreeEnergyPerturbationCouplingTypeLS5_7ELl1EEESt26random_access_iterator_tagS5_RS5_PS5_lvEppIS6_EEDTcmpLclsr3stdE7declvalIRT_EEcvlLi1Eclsr3stdE7declvalISD_EEEv(ptr noundef nonnull align 1 dereferenceable(1) %0) #1 comdat align 2 {
  %2 = alloca ptr, align 8
  store ptr %0, ptr %2, align 8
  %3 = load ptr, ptr %2, align 8
  %4 = call noundef nonnull align 4 dereferenceable(4) ptr @_ZN3gmx5boost14stl_interfaces2v118iterator_interfaceINS_19EnumerationIteratorI34FreeEnergyPerturbationCouplingTypeLS5_7ELl1EEESt26random_access_iterator_tagS5_RS5_PS5_lvE7derivedEv(ptr noundef nonnull align 1 dereferenceable(1) %3) #12
  %5 = call noundef nonnull align 4 dereferenceable(4) ptr @_ZN3gmx19EnumerationIteratorI34FreeEnergyPerturbationCouplingTypeLS1_7ELl1EEpLEl(ptr noundef nonnull align 4 dereferenceable(4) %4, i64 noundef 1) #12
  %6 = call noundef nonnull align 4 dereferenceable(4) ptr @_ZN3gmx5boost14stl_interfaces2v118iterator_interfaceINS_19EnumerationIteratorI34FreeEnergyPerturbationCouplingTypeLS5_7ELl1EEESt26random_access_iterator_tagS5_RS5_PS5_lvE7derivedEv(ptr noundef nonnull align 1 dereferenceable(1) %3) #12
  ret ptr %6
}

; Function Attrs: mustprogress nounwind uwtable
define linkonce_odr noundef nonnull align 8 dereferenceable(8) ptr @_ZN3gmx16EnumerationArrayI34FreeEnergyPerturbationCouplingTypedLS1_7EEixES1_(ptr noundef nonnull align 8 dereferenceable(56) %0, i32 noundef %1) #1 comdat align 2 {
  %3 = alloca ptr, align 8
  %4 = alloca i32, align 4
  store ptr %0, ptr %3, align 8
  store i32 %1, ptr %4, align 4
  %5 = load ptr, ptr %3, align 8
  %6 = getelementptr inbounds %"struct.gmx::EnumerationArray.5", ptr %5, i32 0, i32 0
  %7 = load i32, ptr %4, align 4
  %8 = sext i32 %7 to i64
  %9 = getelementptr inbounds [7 x double], ptr %6, i64 0, i64 %8
  ret ptr %9
}

; Function Attrs: mustprogress nounwind uwtable
define linkonce_odr noundef i32 @_ZNK3gmx19EnumerationIteratorI34FreeEnergyPerturbationCouplingTypeLS1_7ELl1EEdeEv(ptr noundef nonnull align 4 dereferenceable(4) %0) #1 comdat align 2 {
  %2 = alloca ptr, align 8
  store ptr %0, ptr %2, align 8
  %3 = load ptr, ptr %2, align 8
  %4 = getelementptr inbounds %"class.gmx::EnumerationIterator", ptr %3, i32 0, i32 0
  %5 = load i32, ptr %4, align 4
  ret i32 %5
}

; Function Attrs: mustprogress nounwind uwtable
define linkonce_odr noundef zeroext i1 @_ZN3gmx5boost14stl_interfaces2v1neINS_19EnumerationIteratorI34FreeEnergyPerturbationCouplingTypeLS5_7ELl1EEES6_EEDTcmclsr6v1_dtlE16derived_iteratorfp_Enteqfp_fp0_ET_T0_(i32 %0, i32 %1) #1 comdat {
  %3 = alloca %"class.gmx::EnumerationIterator", align 4
  %4 = alloca %"class.gmx::EnumerationIterator", align 4
  %5 = alloca %"class.gmx::EnumerationIterator", align 4
  %6 = alloca %"class.gmx::EnumerationIterator", align 4
  %7 = getelementptr inbounds %"class.gmx::EnumerationIterator", ptr %3, i32 0, i32 0
  store i32 %0, ptr %7, align 4
  %8 = getelementptr inbounds %"class.gmx::EnumerationIterator", ptr %4, i32 0, i32 0
  store i32 %1, ptr %8, align 4
  call void @llvm.memcpy.p0.p0.i64(ptr align 4 %5, ptr align 4 %3, i64 4, i1 false)
  call void @llvm.memcpy.p0.p0.i64(ptr align 4 %6, ptr align 4 %4, i64 4, i1 false)
  %9 = getelementptr inbounds %"class.gmx::EnumerationIterator", ptr %5, i32 0, i32 0
  %10 = load i32, ptr %9, align 4
  %11 = getelementptr inbounds %"class.gmx::EnumerationIterator", ptr %6, i32 0, i32 0
  %12 = load i32, ptr %11, align 4
  %13 = call noundef zeroext i1 @_ZN3gmx5boost14stl_interfaces2v1eqINS_19EnumerationIteratorI34FreeEnergyPerturbationCouplingTypeLS5_7ELl1EEES6_vEEDTcmclsr6v1_dtlE16derived_iteratorfp_Eeqclsr6detailE11common_difffp_fp0_ELi0EET_T0_(i32 %10, i32 %12) #12
  %14 = xor i1 %13, true
  ret i1 %14
}

; Function Attrs: mustprogress nounwind uwtable
define linkonce_odr i32 @_ZNK3gmx18EnumerationWrapperI34FreeEnergyPerturbationCouplingTypeLS1_7ELj1EE3endEv(ptr noundef nonnull align 1 dereferenceable(1) %0) #1 comdat align 2 {
  %2 = alloca %"class.gmx::EnumerationIterator", align 4
  %3 = alloca ptr, align 8
  store ptr %0, ptr %3, align 8
  call void @_ZN3gmx19EnumerationIteratorI34FreeEnergyPerturbationCouplingTypeLS1_7ELl1EEC2ES1_(ptr noundef nonnull align 4 dereferenceable(4) %2, i32 noundef 7) #12
  %4 = getelementptr inbounds %"class.gmx::EnumerationIterator", ptr %2, i32 0, i32 0
  %5 = load i32, ptr %4, align 4
  ret i32 %5
}

; Function Attrs: mustprogress nounwind uwtable
define linkonce_odr i32 @_ZNK3gmx18EnumerationWrapperI34FreeEnergyPerturbationCouplingTypeLS1_7ELj1EE5beginEv(ptr noundef nonnull align 1 dereferenceable(1) %0) #1 comdat align 2 {
  %2 = alloca %"class.gmx::EnumerationIterator", align 4
  %3 = alloca ptr, align 8
  store ptr %0, ptr %3, align 8
  call void @_ZN3gmx19EnumerationIteratorI34FreeEnergyPerturbationCouplingTypeLS1_7ELl1EEC2Ev(ptr noundef nonnull align 4 dereferenceable(4) %2) #12
  %4 = getelementptr inbounds %"class.gmx::EnumerationIterator", ptr %2, i32 0, i32 0
  %5 = load i32, ptr %4, align 4
  ret i32 %5
}

; Function Attrs: mustprogress uwtable
define linkonce_odr void @_ZN3gmx6keysOfINS_16EnumerationArrayI34FreeEnergyPerturbationCouplingTypedLS2_7EEEEENT_22EnumerationWrapperTypeERKS4_(ptr noundef nonnull align 8 dereferenceable(56) %0) #0 comdat {
  %2 = alloca ptr, align 8
  store ptr %0, ptr %2, align 8
  call void @_ZN3gmx16EnumerationArrayI34FreeEnergyPerturbationCouplingTypedLS1_7EE4keysEv()
  ret void
}

; Function Attrs: mustprogress uwtable
define void @_Z19reset_dvdl_enerdataP14gmx_enerdata_t(ptr noundef %0) #0 {
  %2 = alloca ptr, align 8
  %3 = alloca ptr, align 8
  %4 = alloca %"class.gmx::EnumerationWrapper", align 1
  %5 = alloca %"class.gmx::EnumerationIterator", align 4
  %6 = alloca %"class.gmx::EnumerationIterator", align 4
  %7 = alloca %"class.gmx::EnumerationIterator", align 4
  %8 = alloca %"class.gmx::EnumerationIterator", align 4
  %9 = alloca i32, align 4
  store ptr %0, ptr %2, align 8
  %10 = load ptr, ptr %2, align 8
  %11 = getelementptr inbounds %struct.gmx_enerdata_t, ptr %10, i32 0, i32 2
  call void @_ZN3gmx6keysOfINS_16EnumerationArrayI34FreeEnergyPerturbationCouplingTypedLS2_7EEEEENT_22EnumerationWrapperTypeERKS4_(ptr noundef nonnull align 8 dereferenceable(56) %11)
  store ptr %4, ptr %3, align 8
  %12 = load ptr, ptr %3, align 8
  %13 = call i32 @_ZNK3gmx18EnumerationWrapperI34FreeEnergyPerturbationCouplingTypeLS1_7ELj1EE5beginEv(ptr noundef nonnull align 1 dereferenceable(1) %12)
  %14 = getelementptr inbounds %"class.gmx::EnumerationIterator", ptr %5, i32 0, i32 0
  store i32 %13, ptr %14, align 4
  %15 = load ptr, ptr %3, align 8
  %16 = call i32 @_ZNK3gmx18EnumerationWrapperI34FreeEnergyPerturbationCouplingTypeLS1_7ELj1EE3endEv(ptr noundef nonnull align 1 dereferenceable(1) %15)
  %17 = getelementptr inbounds %"class.gmx::EnumerationIterator", ptr %6, i32 0, i32 0
  store i32 %16, ptr %17, align 4
  br label %18

18:                                               ; preds = %34, %1
  call void @llvm.memcpy.p0.p0.i64(ptr align 4 %7, ptr align 4 %5, i64 4, i1 false)
  call void @llvm.memcpy.p0.p0.i64(ptr align 4 %8, ptr align 4 %6, i64 4, i1 false)
  %19 = getelementptr inbounds %"class.gmx::EnumerationIterator", ptr %7, i32 0, i32 0
  %20 = load i32, ptr %19, align 4
  %21 = getelementptr inbounds %"class.gmx::EnumerationIterator", ptr %8, i32 0, i32 0
  %22 = load i32, ptr %21, align 4
  %23 = call noundef zeroext i1 @_ZN3gmx5boost14stl_interfaces2v1neINS_19EnumerationIteratorI34FreeEnergyPerturbationCouplingTypeLS5_7ELl1EEES6_EEDTcmclsr6v1_dtlE16derived_iteratorfp_Enteqfp_fp0_ET_T0_(i32 %20, i32 %22) #12
  br i1 %23, label %24, label %36

24:                                               ; preds = %18
  %25 = call noundef i32 @_ZNK3gmx19EnumerationIteratorI34FreeEnergyPerturbationCouplingTypeLS1_7ELl1EEdeEv(ptr noundef nonnull align 4 dereferenceable(4) %5) #12
  store i32 %25, ptr %9, align 4
  %26 = load ptr, ptr %2, align 8
  %27 = getelementptr inbounds %struct.gmx_enerdata_t, ptr %26, i32 0, i32 2
  %28 = load i32, ptr %9, align 4
  %29 = call noundef nonnull align 8 dereferenceable(8) ptr @_ZN3gmx16EnumerationArrayI34FreeEnergyPerturbationCouplingTypedLS1_7EEixES1_(ptr noundef nonnull align 8 dereferenceable(56) %27, i32 noundef %28)
  store double 0.000000e+00, ptr %29, align 8
  %30 = load ptr, ptr %2, align 8
  %31 = getelementptr inbounds %struct.gmx_enerdata_t, ptr %30, i32 0, i32 3
  %32 = load i32, ptr %9, align 4
  %33 = call noundef nonnull align 8 dereferenceable(8) ptr @_ZN3gmx16EnumerationArrayI34FreeEnergyPerturbationCouplingTypedLS1_7EEixES1_(ptr noundef nonnull align 8 dereferenceable(56) %31, i32 noundef %32)
  store double 0.000000e+00, ptr %33, align 8
  br label %34

34:                                               ; preds = %24
  %35 = call noundef nonnull align 4 dereferenceable(4) ptr @_ZN3gmx5boost14stl_interfaces2v118iterator_interfaceINS_19EnumerationIteratorI34FreeEnergyPerturbationCouplingTypeLS5_7ELl1EEESt26random_access_iterator_tagS5_RS5_PS5_lvEppIS6_EEDTcmpLclsr3stdE7declvalIRT_EEcvlLi1Eclsr3stdE7declvalISD_EEEv(ptr noundef nonnull align 1 dereferenceable(1) %5) #12
  br label %18

36:                                               ; preds = %18
  ret void
}