; Function Attrs: mustprogress nofree norecurse nosync nounwind memory(argmem: write) uwtable
define void @_Z19reset_dvdl_enerdataP14gmx_enerdata_t(ptr nocapture noundef writeonly %0) local_unnamed_addr #14 {
  %2 = getelementptr inbounds i8, ptr %0, i64 504
  %3 = getelementptr inbounds i8, ptr %0, i64 560
  br label %4

4:                                                ; preds = %1, %4
  %indvars.iv = phi i64 [ 0, %1 ], [ %indvars.iv.next, %4 ]
  %5 = getelementptr inbounds [7 x double], ptr %2, i64 0, i64 %indvars.iv
  store double 0.000000e+00, ptr %5, align 8
  %6 = getelementptr inbounds [7 x double], ptr %3, i64 0, i64 %indvars.iv
  store double 0.000000e+00, ptr %6, align 8
  %indvars.iv.next = add nuw nsw i64 %indvars.iv, 1
  %.not = icmp eq i64 %indvars.iv.next, 7
  br i1 %.not, label %7, label %4

7:                                                ; preds = %4
  ret void
}